; Function Attrs: null_pointer_is_valid sspstrong uwtable
define internal i32 @dissect_ranap_ProtocolIE_ID(ptr noundef %0, i32 noundef %1, ptr noundef %2, ptr noundef %3, i32 noundef %4) #0 {
  %6 = tail call i32 @dissect_per_constrained_integer(ptr noundef %0, i32 noundef %1, ptr noundef %2, ptr noundef %3, i32 noundef %4, i32 noundef 0, i32 noundef 65535, ptr noundef nonnull @ProtocolIE_ID, i1 noundef zeroext false)
  %.not = icmp eq ptr %3, null
  br i1 %.not, label %13, label %7

7:                                                ; preds = %5
  %8 = getelementptr inbounds nuw i8, ptr %2, i64 24
  %9 = load ptr, ptr %8, align 8
  %10 = tail call ptr @proto_item_get_parent_nth(ptr noundef %9, i32 noundef 2)
  %11 = load i32, ptr @ProtocolIE_ID, align 4
  %12 = tail call ptr @val_to_str_ext(i32 noundef %11, ptr noundef nonnull @ranap_ProtocolIE_ID_vals_ext, ptr noundef nonnull @.str.2477)
  tail call void (ptr, ptr, ...) @proto_item_append_text(ptr noundef %10, ptr noundef nonnull @.str.2476, ptr noundef %12)
  br label %13

13:                                               ; preds = %7, %5
  ret i32 %6
}